(dp0
S'failed'
p1
(lp2
S'3'
p3
asS'source_names'
p4
(lp5
S'dinner'
p6
asS'ids'
p7
(dp8
I1
(S'/Users/cwiz/git/staff1/dinner/tests.py'
p9
S'staff1.dinner.tests'
p10
S'RestApiTest.test_day_view'
p11
tp12
sI2
(S'/Users/cwiz/git/staff1/dinner/tests.py'
p13
g10
S'RestApiTest.test_favorites'
p14
tp15
sI3
(S'/Users/cwiz/git/staff1/dinner/tests.py'
p16
g10
S'RestApiTest.test_reserve_data'
p17
tp18
sI4
(S'/Users/cwiz/git/staff1/dinner/tests.py'
p19
g10
S'ProviderXlsParseTestCase.test_import_menu'
p20
tp21
sI5
(S'/Users/cwiz/git/staff1/dinner/tests.py'
p22
g10
S'ProviderXlsParseTestCase.test_parse_fusion'
p23
tp24
sI6
(S'/Users/cwiz/git/staff1/dinner/tests.py'
p25
g10
S'ProviderXlsParseTestCase.test_parse_helobsl'
p26
tp27
ss.