(dp0
S'failed'
p1
(lp2
sS'source_names'
p3
(lp4
S'dinner'
p5
asS'ids'
p6
(dp7
I1
(S'/home/cwiz/git/catering/dinner/tests.py'
p8
S'catering.dinner.tests'
p9
S'RestApiTest.test_day_view'
p10
tp11
sI2
(S'/home/cwiz/git/catering/dinner/tests.py'
p12
g9
S'RestApiTest.test_favorites'
p13
tp14
sI3
(S'/home/cwiz/git/catering/dinner/tests.py'
p15
g9
S'RestApiTest.test_reserve_data'
p16
tp17
sI4
(S'/home/cwiz/git/catering/dinner/tests.py'
p18
g9
S'ProviderXlsParseTestCase.test_import_menu'
p19
tp20
sI5
(S'/home/cwiz/git/catering/dinner/tests.py'
p21
g9
S'ProviderXlsParseTestCase.test_parse_fusion'
p22
tp23
sI6
(S'/home/cwiz/git/catering/dinner/tests.py'
p24
g9
S'ProviderXlsParseTestCase.test_parse_helobsl'
p25
tp26
ss.